	.cpu arm7tdmi
	.eabi_attribute 20, 1
	.eabi_attribute 21, 1
	.eabi_attribute 23, 3
	.eabi_attribute 24, 1
	.eabi_attribute 25, 1
	.eabi_attribute 26, 1
	.eabi_attribute 30, 2
	.eabi_attribute 34, 0
	.eabi_attribute 18, 4
	.file	"main.c"
	.text
	.section	.text.startup,"ax",%progbits
	.align	2
	.global	main
	.arch armv4t
	.syntax unified
	.arm
	.fpu softvfp
	.type	main, %function
main:
	@ Function supports interworking.
	@ Volatile: function does not return.
	@ args = 0, pretend = 0, frame = 0
	@ frame_needed = 0, uses_anonymous_args = 0
	@ link register save eliminated.
	mov	r3, #67108864
	mov	r1, #0
	ldr	r2, .L4
	strh	r1, [r3]	@ movhi
	ldr	r1, .L4+4
	ldrh	r3, [r2, #48]
	ldr	r0, .L4+8
	strh	r3, [r1]	@ movhi
.L2:
	strh	r3, [r0]	@ movhi
	ldrh	r3, [r2, #48]
	strh	r3, [r1]	@ movhi
	b	.L2
.L5:
	.align	2
.L4:
	.word	67109120
	.word	buttons
	.word	oldButtons
	.size	main, .-main
	.text
	.align	2
	.global	initialize
	.syntax unified
	.arm
	.fpu softvfp
	.type	initialize, %function
initialize:
	@ Function supports interworking.
	@ args = 0, pretend = 0, frame = 0
	@ frame_needed = 0, uses_anonymous_args = 0
	@ link register save eliminated.
	mov	r1, #67108864
	mov	r3, #0
	ldr	r2, .L7
	strh	r3, [r1]	@ movhi
	ldr	r0, .L7+4
	ldrh	r1, [r2, #48]
	ldr	r2, .L7+8
	strh	r3, [r0]	@ movhi
	strh	r1, [r2]	@ movhi
	bx	lr
.L8:
	.align	2
.L7:
	.word	67109120
	.word	oldButtons
	.word	buttons
	.size	initialize, .-initialize
	.align	2
	.global	goToStart
	.syntax unified
	.arm
	.fpu softvfp
	.type	goToStart, %function
goToStart:
	@ Function supports interworking.
	@ args = 0, pretend = 0, frame = 0
	@ frame_needed = 0, uses_anonymous_args = 0
	@ link register save eliminated.
	bx	lr
	.size	goToStart, .-goToStart
	.align	2
	.global	start
	.syntax unified
	.arm
	.fpu softvfp
	.type	start, %function
start:
	@ Function supports interworking.
	@ args = 0, pretend = 0, frame = 0
	@ frame_needed = 0, uses_anonymous_args = 0
	@ link register save eliminated.
	bx	lr
	.size	start, .-start
	.align	2
	.global	goToGame
	.syntax unified
	.arm
	.fpu softvfp
	.type	goToGame, %function
goToGame:
	@ Function supports interworking.
	@ args = 0, pretend = 0, frame = 0
	@ frame_needed = 0, uses_anonymous_args = 0
	@ link register save eliminated.
	bx	lr
	.size	goToGame, .-goToGame
	.align	2
	.global	game
	.syntax unified
	.arm
	.fpu softvfp
	.type	game, %function
game:
	@ Function supports interworking.
	@ args = 0, pretend = 0, frame = 0
	@ frame_needed = 0, uses_anonymous_args = 0
	@ link register save eliminated.
	bx	lr
	.size	game, .-game
	.align	2
	.global	goToPause
	.syntax unified
	.arm
	.fpu softvfp
	.type	goToPause, %function
goToPause:
	@ Function supports interworking.
	@ args = 0, pretend = 0, frame = 0
	@ frame_needed = 0, uses_anonymous_args = 0
	@ link register save eliminated.
	bx	lr
	.size	goToPause, .-goToPause
	.align	2
	.global	pause
	.syntax unified
	.arm
	.fpu softvfp
	.type	pause, %function
pause:
	@ Function supports interworking.
	@ args = 0, pretend = 0, frame = 0
	@ frame_needed = 0, uses_anonymous_args = 0
	@ link register save eliminated.
	bx	lr
	.size	pause, .-pause
	.align	2
	.global	goToWin
	.syntax unified
	.arm
	.fpu softvfp
	.type	goToWin, %function
goToWin:
	@ Function supports interworking.
	@ args = 0, pretend = 0, frame = 0
	@ frame_needed = 0, uses_anonymous_args = 0
	@ link register save eliminated.
	bx	lr
	.size	goToWin, .-goToWin
	.align	2
	.global	win
	.syntax unified
	.arm
	.fpu softvfp
	.type	win, %function
win:
	@ Function supports interworking.
	@ args = 0, pretend = 0, frame = 0
	@ frame_needed = 0, uses_anonymous_args = 0
	@ link register save eliminated.
	bx	lr
	.size	win, .-win
	.align	2
	.global	goToLose
	.syntax unified
	.arm
	.fpu softvfp
	.type	goToLose, %function
goToLose:
	@ Function supports interworking.
	@ args = 0, pretend = 0, frame = 0
	@ frame_needed = 0, uses_anonymous_args = 0
	@ link register save eliminated.
	bx	lr
	.size	goToLose, .-goToLose
	.align	2
	.global	lose
	.syntax unified
	.arm
	.fpu softvfp
	.type	lose, %function
lose:
	@ Function supports interworking.
	@ args = 0, pretend = 0, frame = 0
	@ frame_needed = 0, uses_anonymous_args = 0
	@ link register save eliminated.
	bx	lr
	.size	lose, .-lose
	.comm	shadowOAM,1024,4
	.comm	oldButtons,2,2
	.comm	buttons,2,2
	.comm	state,4,4
	.ident	"GCC: (devkitARM release 53) 9.1.0"
